target datalayout = "e-m:e-p270:32:32-p271:32:32-p272:64:64-i64:64-i128:128-f80:128-n8:16:32:64-S128"
target triple = "x86_64-pc-linux-gnu"

%struct.aethra_hdr = type { [5 x i8], [39 x i8], [60 x i8], [118 x i8], i8, i8, i8, [462 x i8], [37 x i8], [4 x i8], [4504 x i8], [2 x i8], [2 x i8], [2 x i8], [2 x i8], [8 x i8], [16 x i8], [107 x i8], [41 x i8] }
%struct.tm = type { i32, i32, i32, i32, i32, i32, i32, i32, i32, i64, ptr }
%struct.wtap = type { ptr, ptr, i8, i32, i32, ptr, ptr, ptr, i32, ptr, ptr, ptr, ptr, ptr, ptr, ptr, ptr, ptr, ptr, i32, i32, ptr, ptr, ptr, ptr }
%struct.aethra_t = type { i64 }

@aethra_magic = internal constant [5 x i8] c"V0208", align 1
@aethra_file_type_subtype = internal global i32 -1, align 4

; Function Attrs: inlinehint nounwind null_pointer_is_valid sspstrong uwtable
define internal zeroext i16 @pletoh16(ptr noundef %0) #7 {
  %2 = alloca ptr, align 8
  store ptr %0, ptr %2, align 8
  %3 = load ptr, ptr %2, align 8
  %4 = getelementptr i8, ptr %3, i64 1
  %5 = load i8, ptr %4, align 1
  %6 = zext i8 %5 to i16
  %7 = zext i16 %6 to i32
  %8 = shl i32 %7, 8
  %9 = load ptr, ptr %2, align 8
  %10 = getelementptr i8, ptr %9, i64 0
  %11 = load i8, ptr %10, align 1
  %12 = zext i8 %11 to i16
  %13 = zext i16 %12 to i32
  %14 = shl i32 %13, 0
  %15 = or i32 %8, %14
  %16 = trunc i32 %15 to i16
  ret i16 %16
}

; Function Attrs: null_pointer_is_valid sspstrong uwtable
define hidden i32 @aethra_open(ptr noundef %0, ptr noundef %1, ptr noundef %2) #0 {
  %4 = alloca i32, align 4
  %5 = alloca ptr, align 8
  %6 = alloca ptr, align 8
  %7 = alloca ptr, align 8
  %8 = alloca %struct.aethra_hdr, align 1
  %9 = alloca %struct.tm, align 8
  %10 = alloca ptr, align 8
  %11 = alloca i32, align 4
  %12 = alloca i64, align 8
  %13 = alloca i64, align 8
  %14 = alloca ptr, align 8
  %15 = alloca ptr, align 8
  store ptr %0, ptr %5, align 8
  store ptr %1, ptr %6, align 8
  store ptr %2, ptr %7, align 8
  call void @llvm.lifetime.start.p0(i64 5412, ptr %8) #9
  call void @llvm.lifetime.start.p0(i64 56, ptr %9) #9
  call void @llvm.lifetime.start.p0(i64 8, ptr %10) #9
  %16 = load ptr, ptr %5, align 8
  %17 = getelementptr inbounds nuw %struct.wtap, ptr %16, i32 0, i32 0
  %18 = load ptr, ptr %17, align 8
  %19 = getelementptr inbounds nuw %struct.aethra_hdr, ptr %8, i32 0, i32 0
  %20 = getelementptr inbounds [5 x i8], ptr %19, i64 0, i64 0
  %21 = load ptr, ptr %6, align 8
  %22 = load ptr, ptr %7, align 8
  %23 = call zeroext i1 @wtap_read_bytes(ptr noundef %18, ptr noundef %20, i32 noundef 5, ptr noundef %21, ptr noundef %22)
  br i1 %23, label %30, label %24

24:                                               ; preds = %3
  %25 = load ptr, ptr %6, align 8
  %26 = load i32, ptr %25, align 4
  %27 = icmp ne i32 %26, -12
  br i1 %27, label %28, label %29

28:                                               ; preds = %24
  store i32 -1, ptr %4, align 4
  store i32 1, ptr %11, align 4
  br label %122

29:                                               ; preds = %24
  store i32 0, ptr %4, align 4
  store i32 1, ptr %11, align 4
  br label %122

30:                                               ; preds = %3
  %31 = getelementptr inbounds nuw %struct.aethra_hdr, ptr %8, i32 0, i32 0
  %32 = getelementptr inbounds [5 x i8], ptr %31, i64 0, i64 0
  %33 = call i32 @memcmp(ptr noundef %32, ptr noundef @aethra_magic, i64 noundef 5) #10
  %34 = icmp ne i32 %33, 0
  br i1 %34, label %35, label %36

35:                                               ; preds = %30
  store i32 0, ptr %4, align 4
  store i32 1, ptr %11, align 4
  br label %122

36:                                               ; preds = %30
  %37 = load ptr, ptr %5, align 8
  %38 = getelementptr inbounds nuw %struct.wtap, ptr %37, i32 0, i32 0
  %39 = load ptr, ptr %38, align 8
  %40 = getelementptr i8, ptr %8, i64 5
  %41 = load ptr, ptr %6, align 8
  %42 = load ptr, ptr %7, align 8
  %43 = call zeroext i1 @wtap_read_bytes(ptr noundef %39, ptr noundef %40, i32 noundef 5407, ptr noundef %41, ptr noundef %42)
  br i1 %43, label %45, label %44

44:                                               ; preds = %36
  store i32 -1, ptr %4, align 4
  store i32 1, ptr %11, align 4
  br label %122

45:                                               ; preds = %36
  %46 = load i32, ptr @aethra_file_type_subtype, align 4
  %47 = load ptr, ptr %5, align 8
  %48 = getelementptr inbounds nuw %struct.wtap, ptr %47, i32 0, i32 3
  store i32 %46, ptr %48, align 4
  call void @llvm.lifetime.start.p0(i64 8, ptr %12) #9
  store i64 1, ptr %12, align 8
  call void @llvm.lifetime.start.p0(i64 8, ptr %13) #9
  store i64 8, ptr %13, align 8
  call void @llvm.lifetime.start.p0(i64 8, ptr %14) #9
  %49 = load i64, ptr %13, align 8
  %50 = icmp eq i64 %49, 1
  br i1 %50, label %51, label %54

51:                                               ; preds = %45
  %52 = load i64, ptr %12, align 8
  %53 = call noalias ptr @g_malloc(i64 noundef %52) #11
  store ptr %53, ptr %14, align 8
  br label %75

54:                                               ; preds = %45
  %55 = load i64, ptr %12, align 8
  %56 = call i1 @llvm.is.constant.i64(i64 %55)
  br i1 %56, label %57, label %70

57:                                               ; preds = %54
  %58 = load i64, ptr %13, align 8
  %59 = icmp eq i64 %58, 0
  br i1 %59, label %65, label %60

60:                                               ; preds = %57
  %61 = load i64, ptr %12, align 8
  %62 = load i64, ptr %13, align 8
  %63 = udiv i64 -1, %62
  %64 = icmp ule i64 %61, %63
  br i1 %64, label %65, label %70

65:                                               ; preds = %60, %57
  %66 = load i64, ptr %12, align 8
  %67 = load i64, ptr %13, align 8
  %68 = mul i64 %66, %67
  %69 = call noalias ptr @g_malloc(i64 noundef %68) #11
  store ptr %69, ptr %14, align 8
  br label %74

70:                                               ; preds = %60, %54
  %71 = load i64, ptr %12, align 8
  %72 = load i64, ptr %13, align 8
  %73 = call noalias ptr @g_malloc_n(i64 noundef %71, i64 noundef %72) #12
  store ptr %73, ptr %14, align 8
  br label %74

74:                                               ; preds = %70, %65
  br label %75

75:                                               ; preds = %74, %51
  %76 = load ptr, ptr %14, align 8
  store ptr %76, ptr %15, align 8
  call void @llvm.lifetime.end.p0(i64 8, ptr %14) #9
  call void @llvm.lifetime.end.p0(i64 8, ptr %13) #9
  call void @llvm.lifetime.end.p0(i64 8, ptr %12) #9
  %77 = load ptr, ptr %15, align 8
  store ptr %77, ptr %10, align 8
  %78 = load ptr, ptr %10, align 8
  %79 = load ptr, ptr %5, align 8
  %80 = getelementptr inbounds nuw %struct.wtap, ptr %79, i32 0, i32 13
  store ptr %78, ptr %80, align 8
  %81 = load ptr, ptr %5, align 8
  %82 = getelementptr inbounds nuw %struct.wtap, ptr %81, i32 0, i32 15
  store ptr @aethra_read, ptr %82, align 8
  %83 = load ptr, ptr %5, align 8
  %84 = getelementptr inbounds nuw %struct.wtap, ptr %83, i32 0, i32 16
  store ptr @aethra_seek_read, ptr %84, align 8
  %85 = getelementptr inbounds nuw %struct.aethra_hdr, ptr %8, i32 0, i32 11
  %86 = call zeroext i16 @pletoh16(ptr noundef %85)
  %87 = zext i16 %86 to i32
  %88 = sub i32 %87, 1900
  %89 = getelementptr inbounds nuw %struct.tm, ptr %9, i32 0, i32 5
  store i32 %88, ptr %89, align 4
  %90 = getelementptr inbounds nuw %struct.aethra_hdr, ptr %8, i32 0, i32 12
  %91 = call zeroext i16 @pletoh16(ptr noundef %90)
  %92 = zext i16 %91 to i32
  %93 = sub i32 %92, 1
  %94 = getelementptr inbounds nuw %struct.tm, ptr %9, i32 0, i32 4
  store i32 %93, ptr %94, align 8
  %95 = getelementptr inbounds nuw %struct.aethra_hdr, ptr %8, i32 0, i32 14
  %96 = call zeroext i16 @pletoh16(ptr noundef %95)
  %97 = zext i16 %96 to i32
  %98 = getelementptr inbounds nuw %struct.tm, ptr %9, i32 0, i32 3
  store i32 %97, ptr %98, align 4
  %99 = getelementptr inbounds nuw %struct.aethra_hdr, ptr %8, i32 0, i32 6
  %100 = load i8, ptr %99, align 1
  %101 = zext i8 %100 to i32
  %102 = getelementptr inbounds nuw %struct.tm, ptr %9, i32 0, i32 2
  store i32 %101, ptr %102, align 8
  %103 = getelementptr inbounds nuw %struct.aethra_hdr, ptr %8, i32 0, i32 5
  %104 = load i8, ptr %103, align 1
  %105 = zext i8 %104 to i32
  %106 = getelementptr inbounds nuw %struct.tm, ptr %9, i32 0, i32 1
  store i32 %105, ptr %106, align 4
  %107 = getelementptr inbounds nuw %struct.aethra_hdr, ptr %8, i32 0, i32 4
  %108 = load i8, ptr %107, align 1
  %109 = zext i8 %108 to i32
  %110 = getelementptr inbounds nuw %struct.tm, ptr %9, i32 0, i32 0
  store i32 %109, ptr %110, align 8
  %111 = getelementptr inbounds nuw %struct.tm, ptr %9, i32 0, i32 8
  store i32 -1, ptr %111, align 8
  %112 = call i64 @mktime(ptr noundef %9) #9
  %113 = load ptr, ptr %10, align 8
  %114 = getelementptr inbounds nuw %struct.aethra_t, ptr %113, i32 0, i32 0
  store i64 %112, ptr %114, align 8
  %115 = load ptr, ptr %5, align 8
  %116 = getelementptr inbounds nuw %struct.wtap, ptr %115, i32 0, i32 19
  store i32 17, ptr %116, align 8
  %117 = load ptr, ptr %5, align 8
  %118 = getelementptr inbounds nuw %struct.wtap, ptr %117, i32 0, i32 4
  store i32 0, ptr %118, align 8
  %119 = load ptr, ptr %5, align 8
  %120 = getelementptr inbounds nuw %struct.wtap, ptr %119, i32 0, i32 20
  store i32 3, ptr %120, align 4
  %121 = load ptr, ptr %5, align 8
  call void @wtap_add_generated_idb(ptr noundef %121)
  store i32 1, ptr %4, align 4
  store i32 1, ptr %11, align 4
  br label %122

122:                                              ; preds = %75, %44, %35, %29, %28
  call void @llvm.lifetime.end.p0(i64 8, ptr %10) #9
  call void @llvm.lifetime.end.p0(i64 56, ptr %9) #9
  call void @llvm.lifetime.end.p0(i64 5412, ptr %8) #9
  %123 = load i32, ptr %4, align 4
  ret i32 %123
}