; Function Attrs: null_pointer_is_valid sspstrong uwtable
define hidden range(i32 -1, 2) i32 @aethra_open(ptr noundef %0, ptr noundef %1, ptr noundef %2) local_unnamed_addr #0 {
  %4 = alloca %struct.aethra_hdr, align 1
  %5 = alloca %struct.tm, align 8
  call void @llvm.lifetime.start.p0(i64 5412, ptr nonnull %4) #6
  call void @llvm.lifetime.start.p0(i64 56, ptr nonnull %5) #6
  %6 = load ptr, ptr %0, align 8
  %7 = call zeroext i1 @wtap_read_bytes(ptr noundef %6, ptr noundef nonnull %4, i32 noundef 5, ptr noundef %1, ptr noundef %2)
  br i1 %7, label %10, label %8

8:                                                ; preds = %3
  %9 = load i32, ptr %1, align 4
  %.not = icmp ne i32 %9, -12
  %. = sext i1 %.not to i32
  br label %49

10:                                               ; preds = %3
  %bcmp = call i32 @bcmp(ptr noundef nonnull dereferenceable(5) %4, ptr noundef nonnull dereferenceable(5) @aethra_magic, i64 5)
  %.not30 = icmp eq i32 %bcmp, 0
  br i1 %.not30, label %11, label %49

11:                                               ; preds = %10
  %12 = load ptr, ptr %0, align 8
  %13 = getelementptr inbounds nuw i8, ptr %4, i64 5
  %14 = call zeroext i1 @wtap_read_bytes(ptr noundef %12, ptr noundef nonnull %13, i32 noundef 5407, ptr noundef %1, ptr noundef %2)
  br i1 %14, label %15, label %49

15:                                               ; preds = %11
  %16 = load i32, ptr @aethra_file_type_subtype, align 4
  %17 = getelementptr inbounds nuw i8, ptr %0, i64 20
  store i32 %16, ptr %17, align 4
  %18 = call noalias dereferenceable_or_null(8) ptr @g_malloc(i64 noundef 8) #7
  %19 = getelementptr inbounds nuw i8, ptr %0, i64 96
  store ptr %18, ptr %19, align 8
  %20 = getelementptr inbounds nuw i8, ptr %0, i64 112
  store ptr @aethra_read, ptr %20, align 8
  %21 = getelementptr inbounds nuw i8, ptr %0, i64 120
  store ptr @aethra_seek_read, ptr %21, align 8
  %22 = getelementptr inbounds nuw i8, ptr %4, i64 5232
  %.val = load i16, ptr %22, align 1
  %23 = zext i16 %.val to i32
  %24 = add nsw i32 %23, -1900
  %25 = getelementptr inbounds nuw i8, ptr %5, i64 20
  store i32 %24, ptr %25, align 4
  %26 = getelementptr inbounds nuw i8, ptr %4, i64 5234
  %.val32 = load i16, ptr %26, align 1
  %27 = zext i16 %.val32 to i32
  %28 = add nsw i32 %27, -1
  %29 = getelementptr inbounds nuw i8, ptr %5, i64 16
  store i32 %28, ptr %29, align 8
  %30 = getelementptr inbounds nuw i8, ptr %4, i64 5238
  %.val34 = load i16, ptr %30, align 1
  %31 = zext i16 %.val34 to i32
  %32 = getelementptr inbounds nuw i8, ptr %5, i64 12
  store i32 %31, ptr %32, align 4
  %33 = getelementptr inbounds nuw i8, ptr %4, i64 224
  %34 = load i8, ptr %33, align 1
  %35 = zext i8 %34 to i32
  %36 = getelementptr inbounds nuw i8, ptr %5, i64 8
  store i32 %35, ptr %36, align 8
  %37 = getelementptr inbounds nuw i8, ptr %4, i64 223
  %38 = load i8, ptr %37, align 1
  %39 = zext i8 %38 to i32
  %40 = getelementptr inbounds nuw i8, ptr %5, i64 4
  store i32 %39, ptr %40, align 4
  %41 = getelementptr inbounds nuw i8, ptr %4, i64 222
  %42 = load i8, ptr %41, align 1
  %43 = zext i8 %42 to i32
  store i32 %43, ptr %5, align 8
  %44 = getelementptr inbounds nuw i8, ptr %5, i64 32
  store i32 -1, ptr %44, align 8
  %45 = call i64 @mktime(ptr noundef nonnull %5) #6
  store i64 %45, ptr %18, align 8
  %46 = getelementptr inbounds nuw i8, ptr %0, i64 144
  store i32 17, ptr %46, align 8
  %47 = getelementptr inbounds nuw i8, ptr %0, i64 24
  store i32 0, ptr %47, align 8
  %48 = getelementptr inbounds nuw i8, ptr %0, i64 148
  store i32 3, ptr %48, align 4
  call void @wtap_add_generated_idb(ptr noundef %0)
  br label %49

49:                                               ; preds = %11, %10, %8, %15
  %.0 = phi i32 [ 1, %15 ], [ %., %8 ], [ 0, %10 ], [ -1, %11 ]
  call void @llvm.lifetime.end.p0(i64 56, ptr nonnull %5) #6
  call void @llvm.lifetime.end.p0(i64 5412, ptr nonnull %4) #6
  ret i32 %.0
}